target datalayout = "e-m:e-p270:32:32-p271:32:32-p272:64:64-i64:64-i128:128-f80:128-n8:16:32:64-S128"
target triple = "x86_64-pc-linux-gnu"

%struct.DiracDSPContext = type { ptr, [3 x [4 x ptr]], [3 x [4 x ptr]], [3 x ptr], ptr, ptr, [3 x ptr], [4 x ptr], [3 x ptr], [3 x ptr] }

; Function Attrs: cold nounwind optsize uwtable
define void @ff_diracdsp_init(ptr noundef %0) #0 {
  %2 = alloca ptr, align 8
  store ptr %0, ptr %2, align 8, !tbaa !4
  %3 = load ptr, ptr %2, align 8, !tbaa !4
  %4 = getelementptr inbounds nuw %struct.DiracDSPContext, ptr %3, i32 0, i32 0
  store ptr @dirac_hpel_filter, ptr %4, align 8, !tbaa !8
  %5 = load ptr, ptr %2, align 8, !tbaa !4
  %6 = getelementptr inbounds nuw %struct.DiracDSPContext, ptr %5, i32 0, i32 5
  store ptr @add_rect_clamped_c, ptr %6, align 8, !tbaa !10
  %7 = load ptr, ptr %2, align 8, !tbaa !4
  %8 = getelementptr inbounds nuw %struct.DiracDSPContext, ptr %7, i32 0, i32 3
  %9 = getelementptr inbounds [3 x ptr], ptr %8, i64 0, i64 0
  store ptr @put_signed_rect_clamped_8bit_c, ptr %9, align 8, !tbaa !4
  %10 = load ptr, ptr %2, align 8, !tbaa !4
  %11 = getelementptr inbounds nuw %struct.DiracDSPContext, ptr %10, i32 0, i32 3
  %12 = getelementptr inbounds [3 x ptr], ptr %11, i64 0, i64 1
  store ptr @put_signed_rect_clamped_10bit_c, ptr %12, align 8, !tbaa !4
  %13 = load ptr, ptr %2, align 8, !tbaa !4
  %14 = getelementptr inbounds nuw %struct.DiracDSPContext, ptr %13, i32 0, i32 3
  %15 = getelementptr inbounds [3 x ptr], ptr %14, i64 0, i64 2
  store ptr @put_signed_rect_clamped_12bit_c, ptr %15, align 8, !tbaa !4
  %16 = load ptr, ptr %2, align 8, !tbaa !4
  %17 = getelementptr inbounds nuw %struct.DiracDSPContext, ptr %16, i32 0, i32 6
  %18 = getelementptr inbounds [3 x ptr], ptr %17, i64 0, i64 0
  store ptr @add_obmc8_c, ptr %18, align 8, !tbaa !4
  %19 = load ptr, ptr %2, align 8, !tbaa !4
  %20 = getelementptr inbounds nuw %struct.DiracDSPContext, ptr %19, i32 0, i32 6
  %21 = getelementptr inbounds [3 x ptr], ptr %20, i64 0, i64 1
  store ptr @add_obmc16_c, ptr %21, align 8, !tbaa !4
  %22 = load ptr, ptr %2, align 8, !tbaa !4
  %23 = getelementptr inbounds nuw %struct.DiracDSPContext, ptr %22, i32 0, i32 6
  %24 = getelementptr inbounds [3 x ptr], ptr %23, i64 0, i64 2
  store ptr @add_obmc32_c, ptr %24, align 8, !tbaa !4
  %25 = load ptr, ptr %2, align 8, !tbaa !4
  %26 = getelementptr inbounds nuw %struct.DiracDSPContext, ptr %25, i32 0, i32 8
  %27 = getelementptr inbounds [3 x ptr], ptr %26, i64 0, i64 0
  store ptr @weight_dirac_pixels8_c, ptr %27, align 8, !tbaa !4
  %28 = load ptr, ptr %2, align 8, !tbaa !4
  %29 = getelementptr inbounds nuw %struct.DiracDSPContext, ptr %28, i32 0, i32 8
  %30 = getelementptr inbounds [3 x ptr], ptr %29, i64 0, i64 1
  store ptr @weight_dirac_pixels16_c, ptr %30, align 8, !tbaa !4
  %31 = load ptr, ptr %2, align 8, !tbaa !4
  %32 = getelementptr inbounds nuw %struct.DiracDSPContext, ptr %31, i32 0, i32 8
  %33 = getelementptr inbounds [3 x ptr], ptr %32, i64 0, i64 2
  store ptr @weight_dirac_pixels32_c, ptr %33, align 8, !tbaa !4
  %34 = load ptr, ptr %2, align 8, !tbaa !4
  %35 = getelementptr inbounds nuw %struct.DiracDSPContext, ptr %34, i32 0, i32 9
  %36 = getelementptr inbounds [3 x ptr], ptr %35, i64 0, i64 0
  store ptr @biweight_dirac_pixels8_c, ptr %36, align 8, !tbaa !4
  %37 = load ptr, ptr %2, align 8, !tbaa !4
  %38 = getelementptr inbounds nuw %struct.DiracDSPContext, ptr %37, i32 0, i32 9
  %39 = getelementptr inbounds [3 x ptr], ptr %38, i64 0, i64 1
  store ptr @biweight_dirac_pixels16_c, ptr %39, align 8, !tbaa !4
  %40 = load ptr, ptr %2, align 8, !tbaa !4
  %41 = getelementptr inbounds nuw %struct.DiracDSPContext, ptr %40, i32 0, i32 9
  %42 = getelementptr inbounds [3 x ptr], ptr %41, i64 0, i64 2
  store ptr @biweight_dirac_pixels32_c, ptr %42, align 8, !tbaa !4
  %43 = load ptr, ptr %2, align 8, !tbaa !4
  %44 = getelementptr inbounds nuw %struct.DiracDSPContext, ptr %43, i32 0, i32 7
  %45 = getelementptr inbounds [4 x ptr], ptr %44, i64 0, i64 2
  store ptr @dequant_subband_int16_t_c, ptr %45, align 8, !tbaa !4
  %46 = load ptr, ptr %2, align 8, !tbaa !4
  %47 = getelementptr inbounds nuw %struct.DiracDSPContext, ptr %46, i32 0, i32 7
  %48 = getelementptr inbounds [4 x ptr], ptr %47, i64 0, i64 0
  store ptr @dequant_subband_int16_t_c, ptr %48, align 8, !tbaa !4
  %49 = load ptr, ptr %2, align 8, !tbaa !4
  %50 = getelementptr inbounds nuw %struct.DiracDSPContext, ptr %49, i32 0, i32 7
  %51 = getelementptr inbounds [4 x ptr], ptr %50, i64 0, i64 3
  store ptr @dequant_subband_int32_t_c, ptr %51, align 8, !tbaa !4
  %52 = load ptr, ptr %2, align 8, !tbaa !4
  %53 = getelementptr inbounds nuw %struct.DiracDSPContext, ptr %52, i32 0, i32 7
  %54 = getelementptr inbounds [4 x ptr], ptr %53, i64 0, i64 1
  store ptr @dequant_subband_int32_t_c, ptr %54, align 8, !tbaa !4
  %55 = load ptr, ptr %2, align 8, !tbaa !4
  %56 = getelementptr inbounds nuw %struct.DiracDSPContext, ptr %55, i32 0, i32 1
  %57 = getelementptr inbounds [3 x [4 x ptr]], ptr %56, i64 0, i64 0
  %58 = getelementptr inbounds [4 x ptr], ptr %57, i64 0, i64 0
  store ptr @ff_put_dirac_pixels8_c, ptr %58, align 8, !tbaa !4
  %59 = load ptr, ptr %2, align 8, !tbaa !4
  %60 = getelementptr inbounds nuw %struct.DiracDSPContext, ptr %59, i32 0, i32 1
  %61 = getelementptr inbounds [3 x [4 x ptr]], ptr %60, i64 0, i64 0
  %62 = getelementptr inbounds [4 x ptr], ptr %61, i64 0, i64 1
  store ptr @ff_put_dirac_pixels8_l2_c, ptr %62, align 8, !tbaa !4
  %63 = load ptr, ptr %2, align 8, !tbaa !4
  %64 = getelementptr inbounds nuw %struct.DiracDSPContext, ptr %63, i32 0, i32 1
  %65 = getelementptr inbounds [3 x [4 x ptr]], ptr %64, i64 0, i64 0
  %66 = getelementptr inbounds [4 x ptr], ptr %65, i64 0, i64 2
  store ptr @ff_put_dirac_pixels8_l4_c, ptr %66, align 8, !tbaa !4
  %67 = load ptr, ptr %2, align 8, !tbaa !4
  %68 = getelementptr inbounds nuw %struct.DiracDSPContext, ptr %67, i32 0, i32 1
  %69 = getelementptr inbounds [3 x [4 x ptr]], ptr %68, i64 0, i64 0
  %70 = getelementptr inbounds [4 x ptr], ptr %69, i64 0, i64 3
  store ptr @ff_put_dirac_pixels8_bilinear_c, ptr %70, align 8, !tbaa !4
  %71 = load ptr, ptr %2, align 8, !tbaa !4
  %72 = getelementptr inbounds nuw %struct.DiracDSPContext, ptr %71, i32 0, i32 1
  %73 = getelementptr inbounds [3 x [4 x ptr]], ptr %72, i64 0, i64 1
  %74 = getelementptr inbounds [4 x ptr], ptr %73, i64 0, i64 0
  store ptr @ff_put_dirac_pixels16_c, ptr %74, align 8, !tbaa !4
  %75 = load ptr, ptr %2, align 8, !tbaa !4
  %76 = getelementptr inbounds nuw %struct.DiracDSPContext, ptr %75, i32 0, i32 1
  %77 = getelementptr inbounds [3 x [4 x ptr]], ptr %76, i64 0, i64 1
  %78 = getelementptr inbounds [4 x ptr], ptr %77, i64 0, i64 1
  store ptr @ff_put_dirac_pixels16_l2_c, ptr %78, align 8, !tbaa !4
  %79 = load ptr, ptr %2, align 8, !tbaa !4
  %80 = getelementptr inbounds nuw %struct.DiracDSPContext, ptr %79, i32 0, i32 1
  %81 = getelementptr inbounds [3 x [4 x ptr]], ptr %80, i64 0, i64 1
  %82 = getelementptr inbounds [4 x ptr], ptr %81, i64 0, i64 2
  store ptr @ff_put_dirac_pixels16_l4_c, ptr %82, align 8, !tbaa !4
  %83 = load ptr, ptr %2, align 8, !tbaa !4
  %84 = getelementptr inbounds nuw %struct.DiracDSPContext, ptr %83, i32 0, i32 1
  %85 = getelementptr inbounds [3 x [4 x ptr]], ptr %84, i64 0, i64 1
  %86 = getelementptr inbounds [4 x ptr], ptr %85, i64 0, i64 3
  store ptr @ff_put_dirac_pixels16_bilinear_c, ptr %86, align 8, !tbaa !4
  %87 = load ptr, ptr %2, align 8, !tbaa !4
  %88 = getelementptr inbounds nuw %struct.DiracDSPContext, ptr %87, i32 0, i32 1
  %89 = getelementptr inbounds [3 x [4 x ptr]], ptr %88, i64 0, i64 2
  %90 = getelementptr inbounds [4 x ptr], ptr %89, i64 0, i64 0
  store ptr @ff_put_dirac_pixels32_c, ptr %90, align 8, !tbaa !4
  %91 = load ptr, ptr %2, align 8, !tbaa !4
  %92 = getelementptr inbounds nuw %struct.DiracDSPContext, ptr %91, i32 0, i32 1
  %93 = getelementptr inbounds [3 x [4 x ptr]], ptr %92, i64 0, i64 2
  %94 = getelementptr inbounds [4 x ptr], ptr %93, i64 0, i64 1
  store ptr @ff_put_dirac_pixels32_l2_c, ptr %94, align 8, !tbaa !4
  %95 = load ptr, ptr %2, align 8, !tbaa !4
  %96 = getelementptr inbounds nuw %struct.DiracDSPContext, ptr %95, i32 0, i32 1
  %97 = getelementptr inbounds [3 x [4 x ptr]], ptr %96, i64 0, i64 2
  %98 = getelementptr inbounds [4 x ptr], ptr %97, i64 0, i64 2
  store ptr @ff_put_dirac_pixels32_l4_c, ptr %98, align 8, !tbaa !4
  %99 = load ptr, ptr %2, align 8, !tbaa !4
  %100 = getelementptr inbounds nuw %struct.DiracDSPContext, ptr %99, i32 0, i32 1
  %101 = getelementptr inbounds [3 x [4 x ptr]], ptr %100, i64 0, i64 2
  %102 = getelementptr inbounds [4 x ptr], ptr %101, i64 0, i64 3
  store ptr @ff_put_dirac_pixels32_bilinear_c, ptr %102, align 8, !tbaa !4
  %103 = load ptr, ptr %2, align 8, !tbaa !4
  %104 = getelementptr inbounds nuw %struct.DiracDSPContext, ptr %103, i32 0, i32 2
  %105 = getelementptr inbounds [3 x [4 x ptr]], ptr %104, i64 0, i64 0
  %106 = getelementptr inbounds [4 x ptr], ptr %105, i64 0, i64 0
  store ptr @ff_avg_dirac_pixels8_c, ptr %106, align 8, !tbaa !4
  %107 = load ptr, ptr %2, align 8, !tbaa !4
  %108 = getelementptr inbounds nuw %struct.DiracDSPContext, ptr %107, i32 0, i32 2
  %109 = getelementptr inbounds [3 x [4 x ptr]], ptr %108, i64 0, i64 0
  %110 = getelementptr inbounds [4 x ptr], ptr %109, i64 0, i64 1
  store ptr @ff_avg_dirac_pixels8_l2_c, ptr %110, align 8, !tbaa !4
  %111 = load ptr, ptr %2, align 8, !tbaa !4
  %112 = getelementptr inbounds nuw %struct.DiracDSPContext, ptr %111, i32 0, i32 2
  %113 = getelementptr inbounds [3 x [4 x ptr]], ptr %112, i64 0, i64 0
  %114 = getelementptr inbounds [4 x ptr], ptr %113, i64 0, i64 2
  store ptr @ff_avg_dirac_pixels8_l4_c, ptr %114, align 8, !tbaa !4
  %115 = load ptr, ptr %2, align 8, !tbaa !4
  %116 = getelementptr inbounds nuw %struct.DiracDSPContext, ptr %115, i32 0, i32 2
  %117 = getelementptr inbounds [3 x [4 x ptr]], ptr %116, i64 0, i64 0
  %118 = getelementptr inbounds [4 x ptr], ptr %117, i64 0, i64 3
  store ptr @ff_avg_dirac_pixels8_bilinear_c, ptr %118, align 8, !tbaa !4
  %119 = load ptr, ptr %2, align 8, !tbaa !4
  %120 = getelementptr inbounds nuw %struct.DiracDSPContext, ptr %119, i32 0, i32 2
  %121 = getelementptr inbounds [3 x [4 x ptr]], ptr %120, i64 0, i64 1
  %122 = getelementptr inbounds [4 x ptr], ptr %121, i64 0, i64 0
  store ptr @ff_avg_dirac_pixels16_c, ptr %122, align 8, !tbaa !4
  %123 = load ptr, ptr %2, align 8, !tbaa !4
  %124 = getelementptr inbounds nuw %struct.DiracDSPContext, ptr %123, i32 0, i32 2
  %125 = getelementptr inbounds [3 x [4 x ptr]], ptr %124, i64 0, i64 1
  %126 = getelementptr inbounds [4 x ptr], ptr %125, i64 0, i64 1
  store ptr @ff_avg_dirac_pixels16_l2_c, ptr %126, align 8, !tbaa !4
  %127 = load ptr, ptr %2, align 8, !tbaa !4
  %128 = getelementptr inbounds nuw %struct.DiracDSPContext, ptr %127, i32 0, i32 2
  %129 = getelementptr inbounds [3 x [4 x ptr]], ptr %128, i64 0, i64 1
  %130 = getelementptr inbounds [4 x ptr], ptr %129, i64 0, i64 2
  store ptr @ff_avg_dirac_pixels16_l4_c, ptr %130, align 8, !tbaa !4
  %131 = load ptr, ptr %2, align 8, !tbaa !4
  %132 = getelementptr inbounds nuw %struct.DiracDSPContext, ptr %131, i32 0, i32 2
  %133 = getelementptr inbounds [3 x [4 x ptr]], ptr %132, i64 0, i64 1
  %134 = getelementptr inbounds [4 x ptr], ptr %133, i64 0, i64 3
  store ptr @ff_avg_dirac_pixels16_bilinear_c, ptr %134, align 8, !tbaa !4
  %135 = load ptr, ptr %2, align 8, !tbaa !4
  %136 = getelementptr inbounds nuw %struct.DiracDSPContext, ptr %135, i32 0, i32 2
  %137 = getelementptr inbounds [3 x [4 x ptr]], ptr %136, i64 0, i64 2
  %138 = getelementptr inbounds [4 x ptr], ptr %137, i64 0, i64 0
  store ptr @ff_avg_dirac_pixels32_c, ptr %138, align 8, !tbaa !4
  %139 = load ptr, ptr %2, align 8, !tbaa !4
  %140 = getelementptr inbounds nuw %struct.DiracDSPContext, ptr %139, i32 0, i32 2
  %141 = getelementptr inbounds [3 x [4 x ptr]], ptr %140, i64 0, i64 2
  %142 = getelementptr inbounds [4 x ptr], ptr %141, i64 0, i64 1
  store ptr @ff_avg_dirac_pixels32_l2_c, ptr %142, align 8, !tbaa !4
  %143 = load ptr, ptr %2, align 8, !tbaa !4
  %144 = getelementptr inbounds nuw %struct.DiracDSPContext, ptr %143, i32 0, i32 2
  %145 = getelementptr inbounds [3 x [4 x ptr]], ptr %144, i64 0, i64 2
  %146 = getelementptr inbounds [4 x ptr], ptr %145, i64 0, i64 2
  store ptr @ff_avg_dirac_pixels32_l4_c, ptr %146, align 8, !tbaa !4
  %147 = load ptr, ptr %2, align 8, !tbaa !4
  %148 = getelementptr inbounds nuw %struct.DiracDSPContext, ptr %147, i32 0, i32 2
  %149 = getelementptr inbounds [3 x [4 x ptr]], ptr %148, i64 0, i64 2
  %150 = getelementptr inbounds [4 x ptr], ptr %149, i64 0, i64 3
  store ptr @ff_avg_dirac_pixels32_bilinear_c, ptr %150, align 8, !tbaa !4
  ret void
}