; Function Attrs: cold mustprogress nofree norecurse nosync nounwind optsize willreturn memory(argmem: write) uwtable
define void @ff_diracdsp_init(ptr noundef writeonly captures(none) initializes((0, 224), (232, 344)) %0) local_unnamed_addr #0 {
  store ptr @dirac_hpel_filter, ptr %0, align 8, !tbaa !4
  %2 = getelementptr inbounds nuw i8, ptr %0, i64 232
  store ptr @add_rect_clamped_c, ptr %2, align 8, !tbaa !9
  %3 = getelementptr inbounds nuw i8, ptr %0, i64 200
  store ptr @put_signed_rect_clamped_8bit_c, ptr %3, align 8, !tbaa !10
  %4 = getelementptr inbounds nuw i8, ptr %0, i64 208
  store ptr @put_signed_rect_clamped_10bit_c, ptr %4, align 8, !tbaa !10
  %5 = getelementptr inbounds nuw i8, ptr %0, i64 216
  store ptr @put_signed_rect_clamped_12bit_c, ptr %5, align 8, !tbaa !10
  %6 = getelementptr inbounds nuw i8, ptr %0, i64 240
  store ptr @add_obmc8_c, ptr %6, align 8, !tbaa !10
  %7 = getelementptr inbounds nuw i8, ptr %0, i64 248
  store ptr @add_obmc16_c, ptr %7, align 8, !tbaa !10
  %8 = getelementptr inbounds nuw i8, ptr %0, i64 256
  store ptr @add_obmc32_c, ptr %8, align 8, !tbaa !10
  %9 = getelementptr inbounds nuw i8, ptr %0, i64 296
  store ptr @weight_dirac_pixels8_c, ptr %9, align 8, !tbaa !10
  %10 = getelementptr inbounds nuw i8, ptr %0, i64 304
  store ptr @weight_dirac_pixels16_c, ptr %10, align 8, !tbaa !10
  %11 = getelementptr inbounds nuw i8, ptr %0, i64 312
  store ptr @weight_dirac_pixels32_c, ptr %11, align 8, !tbaa !10
  %12 = getelementptr inbounds nuw i8, ptr %0, i64 320
  store ptr @biweight_dirac_pixels8_c, ptr %12, align 8, !tbaa !10
  %13 = getelementptr inbounds nuw i8, ptr %0, i64 328
  store ptr @biweight_dirac_pixels16_c, ptr %13, align 8, !tbaa !10
  %14 = getelementptr inbounds nuw i8, ptr %0, i64 336
  store ptr @biweight_dirac_pixels32_c, ptr %14, align 8, !tbaa !10
  %15 = getelementptr inbounds nuw i8, ptr %0, i64 264
  %16 = getelementptr inbounds nuw i8, ptr %0, i64 280
  store ptr @dequant_subband_int16_t_c, ptr %16, align 8, !tbaa !10
  store ptr @dequant_subband_int16_t_c, ptr %15, align 8, !tbaa !10
  %17 = getelementptr inbounds nuw i8, ptr %0, i64 288
  store ptr @dequant_subband_int32_t_c, ptr %17, align 8, !tbaa !10
  %18 = getelementptr inbounds nuw i8, ptr %0, i64 272
  store ptr @dequant_subband_int32_t_c, ptr %18, align 8, !tbaa !10
  %19 = getelementptr inbounds nuw i8, ptr %0, i64 8
  store ptr @ff_put_dirac_pixels8_c, ptr %19, align 8, !tbaa !10
  %20 = getelementptr inbounds nuw i8, ptr %0, i64 16
  store ptr @ff_put_dirac_pixels8_l2_c, ptr %20, align 8, !tbaa !10
  %21 = getelementptr inbounds nuw i8, ptr %0, i64 24
  store ptr @ff_put_dirac_pixels8_l4_c, ptr %21, align 8, !tbaa !10
  %22 = getelementptr inbounds nuw i8, ptr %0, i64 32
  store ptr @ff_put_dirac_pixels8_bilinear_c, ptr %22, align 8, !tbaa !10
  %23 = getelementptr inbounds nuw i8, ptr %0, i64 40
  store ptr @ff_put_dirac_pixels16_c, ptr %23, align 8, !tbaa !10
  %24 = getelementptr inbounds nuw i8, ptr %0, i64 48
  store ptr @ff_put_dirac_pixels16_l2_c, ptr %24, align 8, !tbaa !10
  %25 = getelementptr inbounds nuw i8, ptr %0, i64 56
  store ptr @ff_put_dirac_pixels16_l4_c, ptr %25, align 8, !tbaa !10
  %26 = getelementptr inbounds nuw i8, ptr %0, i64 64
  store ptr @ff_put_dirac_pixels16_bilinear_c, ptr %26, align 8, !tbaa !10
  %27 = getelementptr inbounds nuw i8, ptr %0, i64 72
  store ptr @ff_put_dirac_pixels32_c, ptr %27, align 8, !tbaa !10
  %28 = getelementptr inbounds nuw i8, ptr %0, i64 80
  store ptr @ff_put_dirac_pixels32_l2_c, ptr %28, align 8, !tbaa !10
  %29 = getelementptr inbounds nuw i8, ptr %0, i64 88
  store ptr @ff_put_dirac_pixels32_l4_c, ptr %29, align 8, !tbaa !10
  %30 = getelementptr inbounds nuw i8, ptr %0, i64 96
  store ptr @ff_put_dirac_pixels32_bilinear_c, ptr %30, align 8, !tbaa !10
  %31 = getelementptr inbounds nuw i8, ptr %0, i64 104
  store ptr @ff_avg_dirac_pixels8_c, ptr %31, align 8, !tbaa !10
  %32 = getelementptr inbounds nuw i8, ptr %0, i64 112
  store ptr @ff_avg_dirac_pixels8_l2_c, ptr %32, align 8, !tbaa !10
  %33 = getelementptr inbounds nuw i8, ptr %0, i64 120
  store ptr @ff_avg_dirac_pixels8_l4_c, ptr %33, align 8, !tbaa !10
  %34 = getelementptr inbounds nuw i8, ptr %0, i64 128
  store ptr @ff_avg_dirac_pixels8_bilinear_c, ptr %34, align 8, !tbaa !10
  %35 = getelementptr inbounds nuw i8, ptr %0, i64 136
  store ptr @ff_avg_dirac_pixels16_c, ptr %35, align 8, !tbaa !10
  %36 = getelementptr inbounds nuw i8, ptr %0, i64 144
  store ptr @ff_avg_dirac_pixels16_l2_c, ptr %36, align 8, !tbaa !10
  %37 = getelementptr inbounds nuw i8, ptr %0, i64 152
  store ptr @ff_avg_dirac_pixels16_l4_c, ptr %37, align 8, !tbaa !10
  %38 = getelementptr inbounds nuw i8, ptr %0, i64 160
  store ptr @ff_avg_dirac_pixels16_bilinear_c, ptr %38, align 8, !tbaa !10
  %39 = getelementptr inbounds nuw i8, ptr %0, i64 168
  store ptr @ff_avg_dirac_pixels32_c, ptr %39, align 8, !tbaa !10
  %40 = getelementptr inbounds nuw i8, ptr %0, i64 176
  store ptr @ff_avg_dirac_pixels32_l2_c, ptr %40, align 8, !tbaa !10
  %41 = getelementptr inbounds nuw i8, ptr %0, i64 184
  store ptr @ff_avg_dirac_pixels32_l4_c, ptr %41, align 8, !tbaa !10
  %42 = getelementptr inbounds nuw i8, ptr %0, i64 192
  store ptr @ff_avg_dirac_pixels32_bilinear_c, ptr %42, align 8, !tbaa !10
  ret void
}